target datalayout = "e-m:e-p270:32:32-p271:32:32-p272:64:64-i64:64-i128:128-f80:128-n8:16:32:64-S128"
target triple = "x86_64-pc-linux-gnu"

%class.ReferenceProcessor = type { %class.ReferenceDiscoverer, ptr, i8, i8, i8, i32, ptr, ptr, i32, i32, ptr, ptr, ptr, ptr, ptr }
%class.ReferenceDiscoverer = type { ptr }
%class.RefProcMTDegreeAdjuster = type <{ ptr, i32, [4 x i8] }>

; Function Attrs: mustprogress nounwind uwtable
define hidden void @_ZN18ReferenceProcessor20set_active_mt_degreeEj(ptr noundef nonnull align 8 dereferenceable(88) %0, i32 noundef %1) #1 align 2 {
  %3 = alloca ptr, align 8
  %4 = alloca i32, align 4
  store ptr %0, ptr %3, align 8
  store i32 %1, ptr %4, align 4
  %5 = load ptr, ptr %3, align 8
  %6 = load i32, ptr %4, align 4
  %7 = getelementptr inbounds %class.ReferenceProcessor, ptr %5, i32 0, i32 8
  store i32 %6, ptr %7, align 8
  %8 = getelementptr inbounds %class.ReferenceProcessor, ptr %5, i32 0, i32 5
  store i32 0, ptr %8, align 4
  ret void
}

; Function Attrs: mustprogress nounwind uwtable
define hidden void @_ZN23RefProcMTDegreeAdjusterD2Ev(ptr noundef nonnull align 8 dereferenceable(12) %0) unnamed_addr #1 align 2 {
  %2 = alloca ptr, align 8
  store ptr %0, ptr %2, align 8
  %3 = load ptr, ptr %2, align 8
  %4 = getelementptr inbounds %class.RefProcMTDegreeAdjuster, ptr %3, i32 0, i32 0
  %5 = load ptr, ptr %4, align 8
  %6 = getelementptr inbounds %class.RefProcMTDegreeAdjuster, ptr %3, i32 0, i32 1
  %7 = load i32, ptr %6, align 8
  call void @_ZN18ReferenceProcessor20set_active_mt_degreeEj(ptr noundef nonnull align 8 dereferenceable(88) %5, i32 noundef %7)
  ret void
}