; Function Attrs: mustprogress nofree norecurse nosync nounwind willreturn memory(write, argmem: readwrite, inaccessiblemem: none) uwtable
define hidden void @_ZN23RefProcMTDegreeAdjusterD2Ev(ptr nocapture noundef nonnull readonly align 8 dereferenceable(12) %0) unnamed_addr #10 align 2 {
  %2 = load ptr, ptr %0, align 8
  %3 = getelementptr inbounds i8, ptr %0, i64 8
  %4 = load i32, ptr %3, align 8
  %5 = getelementptr inbounds i8, ptr %2, i64 40
  store i32 %4, ptr %5, align 8
  %6 = getelementptr inbounds i8, ptr %2, i64 20
  store i32 0, ptr %6, align 4
  ret void
}